	.file	"map.c"
	.text
.Ltext0:
	.file 0 "/home/runner/workspace" "map.c"
	.p2align 4
	.globl	pair_lt
	.type	pair_lt, @function
pair_lt:
.LVL0:
.LFB39:
	.file 1 "map.c"
	.loc 1 30 39 view -0
	.cfi_startproc
	.loc 1 31 3 view .LVU1
	.loc 1 31 11 is_stmt 0 view .LVU2
	movq	current_lt@GOTPCREL(%rip), %rax
	movq	(%rsi), %rsi
.LVL1:
	.loc 1 31 11 view .LVU3
	movq	(%rdi), %rdi
.LVL2:
	.loc 1 31 11 view .LVU4
	jmp	*(%rax)
.LVL3:
	.cfi_endproc
.LFE39:
	.size	pair_lt, .-pair_lt
	.p2align 4
	.globl	list_sortedInsert
	.type	list_sortedInsert, @function
list_sortedInsert:
.LVL4:
.LFB40:
	.loc 1 35 69 is_stmt 1 view -0
	.cfi_startproc
	.loc 1 36 3 view .LVU6
	.loc 1 36 6 is_stmt 0 view .LVU7
	testq	%rdi, %rdi
	je	.L3
	.loc 1 35 69 view .LVU8
	pushq	%r13
	.cfi_def_cfa_offset 16
	.cfi_offset 13, -16
	movq	%rdi, %r13
	pushq	%r12
	.cfi_def_cfa_offset 24
	.cfi_offset 12, -24
	pushq	%rbp
	.cfi_def_cfa_offset 32
	.cfi_offset 6, -32
	movq	%rsi, %rbp
	.loc 1 41 3 is_stmt 1 view .LVU9
	.loc 1 35 69 is_stmt 0 view .LVU10
	pushq	%rbx
	.cfi_def_cfa_offset 40
	.cfi_offset 3, -40
	subq	$8, %rsp
	.cfi_def_cfa_offset 48
	.loc 1 41 8 view .LVU11
	movq	(%rdi), %rax
	.loc 1 41 6 view .LVU12
	testq	%rax, %rax
	je	.L6
	.loc 1 41 25 discriminator 1 view .LVU13
	movq	(%rax), %rsi
.LVL5:
	.loc 1 41 25 discriminator 1 view .LVU14
	movq	%rdx, %r12
	movq	%rbp, %rdi
.LVL6:
	.loc 1 41 25 discriminator 1 view .LVU15
	call	*%rdx
.LVL7:
	.loc 1 41 22 discriminator 1 view .LVU16
	testl	%eax, %eax
	jne	.L6
.LVL8:
.LBB4:
.LBI4:
	.loc 1 34 6 is_stmt 1 view .LVU17
.LBB5:
	.loc 1 47 3 view .LVU18
	.loc 1 47 9 is_stmt 0 view .LVU19
	movq	0(%r13), %rbx
.LVL9:
	.loc 1 48 3 is_stmt 1 view .LVU20
	.loc 1 48 31 view .LVU21
	.loc 1 48 17 is_stmt 0 view .LVU22
	movq	8(%rbx), %rax
	.loc 1 48 31 view .LVU23
	testq	%rax, %rax
	jne	.L7
	jmp	.L8
	.p2align 4,,10
	.p2align 3
.L9:
	.loc 1 49 5 is_stmt 1 view .LVU24
	.loc 1 49 13 is_stmt 0 view .LVU25
	movq	8(%rbx), %rbx
.LVL10:
	.loc 1 48 31 is_stmt 1 view .LVU26
	.loc 1 48 17 is_stmt 0 view .LVU27
	movq	8(%rbx), %rax
	.loc 1 48 31 view .LVU28
	testq	%rax, %rax
	je	.L8
.L7:
	.loc 1 48 35 discriminator 1 view .LVU29
	movq	(%rax), %rsi
	movq	%rbp, %rdi
	call	*%r12
.LVL11:
	.loc 1 48 31 discriminator 1 view .LVU30
	testl	%eax, %eax
	je	.L9
.L8:
	.loc 1 53 3 is_stmt 1 view .LVU31
	.loc 1 53 14 is_stmt 0 view .LVU32
	movq	%rbx, 16(%r13)
	.loc 1 56 3 is_stmt 1 view .LVU33
.LBE5:
.LBE4:
	.loc 1 57 1 is_stmt 0 view .LVU34
	addq	$8, %rsp
	.cfi_remember_state
	.cfi_def_cfa_offset 40
.LBB8:
.LBB6:
	.loc 1 56 3 view .LVU35
	movq	%rbp, %rsi
	movq	%r13, %rdi
.LBE6:
.LBE8:
	.loc 1 57 1 view .LVU36
	popq	%rbx
	.cfi_restore 3
	.cfi_def_cfa_offset 32
.LVL12:
	.loc 1 57 1 view .LVU37
	popq	%rbp
	.cfi_restore 6
	.cfi_def_cfa_offset 24
.LVL13:
	.loc 1 57 1 view .LVU38
	popq	%r12
	.cfi_restore 12
	.cfi_def_cfa_offset 16
.LVL14:
	.loc 1 57 1 view .LVU39
	popq	%r13
	.cfi_restore 13
	.cfi_def_cfa_offset 8
.LVL15:
.LBB9:
.LBB7:
	.loc 1 56 3 view .LVU40
	jmp	list_pushCurrent@PLT
.LVL16:
	.p2align 4,,10
	.p2align 3
.L6:
	.cfi_restore_state
	.loc 1 56 3 view .LVU41
.LBE7:
.LBE9:
	.loc 1 42 5 is_stmt 1 view .LVU42
	.loc 1 57 1 is_stmt 0 view .LVU43
	addq	$8, %rsp
	.cfi_def_cfa_offset 40
	.loc 1 42 5 view .LVU44
	movq	%rbp, %rsi
	movq	%r13, %rdi
	.loc 1 57 1 view .LVU45
	popq	%rbx
	.cfi_restore 3
	.cfi_def_cfa_offset 32
	popq	%rbp
	.cfi_restore 6
	.cfi_def_cfa_offset 24
.LVL17:
	.loc 1 57 1 view .LVU46
	popq	%r12
	.cfi_restore 12
	.cfi_def_cfa_offset 16
	popq	%r13
	.cfi_restore 13
	.cfi_def_cfa_offset 8
.LVL18:
	.loc 1 42 5 view .LVU47
	jmp	list_pushFront@PLT
.LVL19:
	.p2align 4,,10
	.p2align 3
.L3:
	.loc 1 42 5 view .LVU48
.LVL20:
	.loc 1 42 5 view .LVU49
	xorl	%eax, %eax
	xorl	%edx, %edx
	xorl	%esi, %esi
	xorl	%edi, %edi
	ret
	.cfi_endproc
.LFE40:
	.size	list_sortedInsert, .-list_sortedInsert
	.p2align 4
	.globl	sorted_map_create
	.type	sorted_map_create, @function
sorted_map_create:
.LVL21:
.LFB41:
	.loc 1 59 67 is_stmt 1 view -0
	.cfi_startproc
	.loc 1 60 3 view .LVU51
	.loc 1 59 67 is_stmt 0 view .LVU52
	pushq	%rbp
	.cfi_def_cfa_offset 16
	.cfi_offset 6, -16
	movq	%rdi, %rbp
	.loc 1 60 24 view .LVU53
	movl	$24, %edi
.LVL22:
	.loc 1 59 67 view .LVU54
	pushq	%rbx
	.cfi_def_cfa_offset 24
	.cfi_offset 3, -24
	subq	$8, %rsp
	.cfi_def_cfa_offset 32
	.loc 1 60 24 view .LVU55
	call	malloc@PLT
.LVL23:
	.loc 1 61 22 view .LVU56
	movq	%rbp, (%rax)
	.loc 1 60 24 view .LVU57
	movq	%rax, %rbx
.LVL24:
	.loc 1 61 3 is_stmt 1 view .LVU58
	.loc 1 62 3 view .LVU59
	.loc 1 62 20 is_stmt 0 view .LVU60
	movq	$0, 8(%rax)
	.loc 1 63 3 is_stmt 1 view .LVU61
	.loc 1 63 16 is_stmt 0 view .LVU62
	xorl	%eax, %eax
.LVL25:
	.loc 1 63 16 view .LVU63
	call	list_create@PLT
.LVL26:
	.loc 1 63 14 discriminator 1 view .LVU64
	movq	%rax, 16(%rbx)
	.loc 1 65 3 is_stmt 1 view .LVU65
	.loc 1 66 1 is_stmt 0 view .LVU66
	addq	$8, %rsp
	.cfi_def_cfa_offset 24
	movq	%rbx, %rax
	popq	%rbx
	.cfi_def_cfa_offset 16
.LVL27:
	.loc 1 66 1 view .LVU67
	popq	%rbp
	.cfi_def_cfa_offset 8
.LVL28:
	.loc 1 66 1 view .LVU68
	xorl	%edi, %edi
	ret
	.cfi_endproc
.LFE41:
	.size	sorted_map_create, .-sorted_map_create
	.p2align 4
	.globl	map_create
	.type	map_create, @function
map_create:
.LVL29:
.LFB42:
	.loc 1 68 58 is_stmt 1 view -0
	.cfi_startproc
	.loc 1 69 3 view .LVU70
	.loc 1 68 58 is_stmt 0 view .LVU71
	pushq	%rbp
	.cfi_def_cfa_offset 16
	.cfi_offset 6, -16
	movq	%rdi, %rbp
	.loc 1 69 24 view .LVU72
	movl	$24, %edi
.LVL30:
	.loc 1 68 58 view .LVU73
	pushq	%rbx
	.cfi_def_cfa_offset 24
	.cfi_offset 3, -24
	subq	$8, %rsp
	.cfi_def_cfa_offset 32
	.loc 1 69 24 view .LVU74
	call	malloc@PLT
.LVL31:
	.loc 1 71 20 view .LVU75
	movq	%rbp, 8(%rax)
	.loc 1 69 24 view .LVU76
	movq	%rax, %rbx
.LVL32:
	.loc 1 70 3 is_stmt 1 view .LVU77
	.loc 1 70 22 is_stmt 0 view .LVU78
	movq	$0, (%rax)
	.loc 1 71 3 is_stmt 1 view .LVU79
	.loc 1 72 3 view .LVU80
	.loc 1 72 16 is_stmt 0 view .LVU81
	xorl	%eax, %eax
.LVL33:
	.loc 1 72 16 view .LVU82
	call	list_create@PLT
.LVL34:
	.loc 1 72 14 discriminator 1 view .LVU83
	movq	%rax, 16(%rbx)
	.loc 1 74 3 is_stmt 1 view .LVU84
	.loc 1 75 1 is_stmt 0 view .LVU85
	addq	$8, %rsp
	.cfi_def_cfa_offset 24
	movq	%rbx, %rax
	popq	%rbx
	.cfi_def_cfa_offset 16
.LVL35:
	.loc 1 75 1 view .LVU86
	popq	%rbp
	.cfi_def_cfa_offset 8
.LVL36:
	.loc 1 75 1 view .LVU87
	xorl	%edi, %edi
	ret
	.cfi_endproc
.LFE42:
	.size	map_create, .-map_create
	.p2align 4
	.globl	multimap_insert
	.type	multimap_insert, @function
multimap_insert:
.LVL37:
.LFB43:
	.loc 1 78 56 is_stmt 1 view -0
	.cfi_startproc
	.loc 1 79 3 view .LVU89
	.loc 1 78 56 is_stmt 0 view .LVU90
	pushq	%r12
	.cfi_def_cfa_offset 16
	.cfi_offset 12, -16
	movq	%rsi, %r12
	pushq	%rbp
	.cfi_def_cfa_offset 24
	.cfi_offset 6, -24
	movq	%rdx, %rbp
	pushq	%rbx
	.cfi_def_cfa_offset 32
	.cfi_offset 3, -32
	.loc 1 78 56 view .LVU91
	movq	%rdi, %rbx
	.loc 1 79 30 view .LVU92
	movl	$16, %edi
.LVL38:
	.loc 1 79 30 view .LVU93
	call	malloc@PLT
.LVL39:
	.loc 1 85 5 view .LVU94
	movq	16(%rbx), %rdi
	.loc 1 80 13 view .LVU95
	movq	%r12, (%rax)
	.loc 1 79 30 view .LVU96
	movq	%rax, %rsi
.LVL40:
	.loc 1 80 3 is_stmt 1 view .LVU97
	.loc 1 81 3 view .LVU98
	.loc 1 81 15 is_stmt 0 view .LVU99
	movq	%rbp, 8(%rax)
	.loc 1 83 3 is_stmt 1 view .LVU100
	.loc 1 83 10 is_stmt 0 view .LVU101
	movq	(%rbx), %rax
.LVL41:
	.loc 1 83 6 view .LVU102
	testq	%rax, %rax
	je	.L22
	.loc 1 84 5 is_stmt 1 view .LVU103
	.loc 1 84 16 is_stmt 0 view .LVU104
	movq	current_lt@GOTPCREL(%rip), %rdx
	movq	%rax, (%rdx)
	.loc 1 85 5 is_stmt 1 view .LVU105
	movq	pair_lt@GOTPCREL(%rip), %rdx
	.loc 1 88 1 is_stmt 0 view .LVU106
	popq	%rbx
	.cfi_remember_state
	.cfi_def_cfa_offset 24
.LVL42:
	.loc 1 88 1 view .LVU107
	popq	%rbp
	.cfi_def_cfa_offset 16
.LVL43:
	.loc 1 88 1 view .LVU108
	popq	%r12
	.cfi_def_cfa_offset 8
.LVL44:
	.loc 1 85 5 view .LVU109
	jmp	list_sortedInsert@PLT
.LVL45:
	.p2align 4,,10
	.p2align 3
.L22:
	.cfi_restore_state
	.loc 1 87 5 is_stmt 1 view .LVU110
	.loc 1 88 1 is_stmt 0 view .LVU111
	popq	%rbx
	.cfi_def_cfa_offset 24
.LVL46:
	.loc 1 88 1 view .LVU112
	popq	%rbp
	.cfi_def_cfa_offset 16
.LVL47:
	.loc 1 88 1 view .LVU113
	popq	%r12
	.cfi_def_cfa_offset 8
.LVL48:
	.loc 1 87 5 view .LVU114
	jmp	list_pushBack@PLT
.LVL49:
	.loc 1 87 5 view .LVU115
	.cfi_endproc
.LFE43:
	.size	multimap_insert, .-multimap_insert
	.p2align 4
	.globl	_is_equal
	.type	_is_equal, @function
_is_equal:
.LVL50:
.LFB45:
	.loc 1 95 51 is_stmt 1 view -0
	.cfi_startproc
	.loc 1 96 3 view .LVU117
	.loc 1 95 51 is_stmt 0 view .LVU118
	pushq	%r12
	.cfi_def_cfa_offset 16
	.cfi_offset 12, -16
	movq	%rsi, %r12
	pushq	%rbp
	.cfi_def_cfa_offset 24
	.cfi_offset 6, -24
	movq	%rdx, %rbp
	pushq	%rbx
	.cfi_def_cfa_offset 32
	.cfi_offset 3, -32
	.loc 1 96 15 view .LVU119
	movq	8(%rdi), %rax
	.loc 1 95 51 view .LVU120
	movq	%rdi, %rbx
	.loc 1 96 60 view .LVU121
	testq	%rax, %rax
	je	.L29
	.loc 1 96 29 discriminator 1 view .LVU122
	movq	(%rsi), %rdi
.LVL51:
	.loc 1 96 29 discriminator 1 view .LVU123
	movq	%rdx, %rsi
.LVL52:
	.loc 1 96 29 discriminator 1 view .LVU124
	call	*%rax
.LVL53:
	.loc 1 96 29 discriminator 1 view .LVU125
	movl	%eax, %edx
	.loc 1 96 60 discriminator 3 view .LVU126
	movl	$1, %eax
	.loc 1 96 26 discriminator 1 view .LVU127
	testl	%edx, %edx
	je	.L29
	.loc 1 99 1 view .LVU128
	popq	%rbx
	.cfi_remember_state
	.cfi_def_cfa_offset 24
.LVL54:
	.loc 1 99 1 view .LVU129
	popq	%rbp
	.cfi_def_cfa_offset 16
.LVL55:
	.loc 1 99 1 view .LVU130
	popq	%r12
	.cfi_def_cfa_offset 8
.LVL56:
	.loc 1 99 1 view .LVU131
	xorl	%edx, %edx
	xorl	%esi, %esi
	xorl	%edi, %edi
	ret
.LVL57:
	.p2align 4,,10
	.p2align 3
.L29:
	.cfi_restore_state
	.loc 1 97 15 view .LVU132
	movq	(%rbx), %rax
	.loc 1 96 60 discriminator 4 view .LVU133
	testq	%rax, %rax
	je	.L27
	.loc 1 97 32 view .LVU134
	movq	(%r12), %rdi
	movq	%rbp, %rsi
	call	*%rax
.LVL58:
	.loc 1 97 28 discriminator 1 view .LVU135
	testl	%eax, %eax
	jne	.L27
	.loc 1 98 13 view .LVU136
	movq	(%r12), %rsi
	movq	%rbp, %rdi
	call	*(%rbx)
.LVL59:
	.loc 1 99 1 view .LVU137
	popq	%rbx
	.cfi_remember_state
	.cfi_def_cfa_offset 24
.LVL60:
	.loc 1 99 1 view .LVU138
	popq	%rbp
	.cfi_def_cfa_offset 16
.LVL61:
	.loc 1 97 64 discriminator 1 view .LVU139
	testl	%eax, %eax
	.loc 1 99 1 view .LVU140
	popq	%r12
	.cfi_def_cfa_offset 8
.LVL62:
	.loc 1 97 64 discriminator 1 view .LVU141
	sete	%al
	movzbl	%al, %eax
	.loc 1 99 1 view .LVU142
	xorl	%edx, %edx
	xorl	%esi, %esi
	xorl	%edi, %edi
	ret
.LVL63:
	.p2align 4,,10
	.p2align 3
.L27:
	.cfi_restore_state
	.loc 1 99 1 view .LVU143
	popq	%rbx
	.cfi_def_cfa_offset 24
.LVL64:
	.loc 1 96 60 discriminator 5 view .LVU144
	xorl	%eax, %eax
	.loc 1 99 1 view .LVU145
	popq	%rbp
	.cfi_def_cfa_offset 16
.LVL65:
	.loc 1 99 1 view .LVU146
	popq	%r12
	.cfi_def_cfa_offset 8
.LVL66:
	.loc 1 99 1 view .LVU147
	xorl	%edx, %edx
	xorl	%esi, %esi
	xorl	%edi, %edi
	ret
	.cfi_endproc
.LFE45:
	.size	_is_equal, .-_is_equal
	.p2align 4
	.globl	map_remove
	.type	map_remove, @function
map_remove:
.LVL67:
.LFB46:
	.loc 1 101 42 is_stmt 1 view -0
	.cfi_startproc
	.loc 1 102 3 view .LVU149
.LBB10:
	.loc 1 102 8 view .LVU150
.LBE10:
	.loc 1 101 42 is_stmt 0 view .LVU151
	pushq	%r12
	.cfi_def_cfa_offset 16
	.cfi_offset 12, -16
	movq	%rsi, %r12
	pushq	%rbp
	.cfi_def_cfa_offset 24
	.cfi_offset 6, -24
	movq	%rdi, %rbp
	pushq	%rbx
	.cfi_def_cfa_offset 32
	.cfi_offset 3, -32
.LBB11:
	.loc 1 102 24 view .LVU152
	movq	16(%rdi), %rdi
.LVL68:
	.loc 1 102 24 view .LVU153
	call	list_first@PLT
.LVL69:
	.loc 1 102 50 is_stmt 1 discriminator 1 view .LVU154
	movq	%rax, %rbx
	testq	%rax, %rax
	jne	.L33
	jmp	.L36
.LVL70:
	.p2align 4,,10
	.p2align 3
.L35:
	.loc 1 103 13 view .LVU155
	.loc 1 103 15 is_stmt 0 view .LVU156
	call	list_next@PLT
.LVL71:
	movq	%rax, %rbx
.LVL72:
	.loc 1 102 50 is_stmt 1 discriminator 1 view .LVU157
	testq	%rax, %rax
	je	.L36
.LVL73:
.L33:
	.loc 1 104 5 view .LVU158
	.loc 1 104 9 is_stmt 0 view .LVU159
	movq	%rbp, %rdi
	movq	%r12, %rdx
	movq	%rbx, %rsi
	call	_is_equal@PLT
.LVL74:
	.loc 1 105 7 view .LVU160
	movq	16(%rbp), %rdi
	.loc 1 104 8 discriminator 1 view .LVU161
	testl	%eax, %eax
	je	.L35
	.loc 1 105 7 is_stmt 1 view .LVU162
	call	list_popCurrent@PLT
.LVL75:
	.loc 1 106 7 view .LVU163
.LBE11:
	.loc 1 109 1 is_stmt 0 view .LVU164
	movq	%rbx, %rax
	popq	%rbx
	.cfi_remember_state
	.cfi_def_cfa_offset 24
.LVL76:
	.loc 1 109 1 view .LVU165
	popq	%rbp
	.cfi_def_cfa_offset 16
.LVL77:
	.loc 1 109 1 view .LVU166
	popq	%r12
	.cfi_def_cfa_offset 8
.LVL78:
	.loc 1 109 1 view .LVU167
	xorl	%edx, %edx
	xorl	%esi, %esi
	xorl	%edi, %edi
	ret
.LVL79:
	.p2align 4,,10
	.p2align 3
.L36:
	.cfi_restore_state
	.loc 1 108 9 view .LVU168
	xorl	%ebx, %ebx
	.loc 1 109 1 view .LVU169
	movq	%rbx, %rax
	popq	%rbx
	.cfi_def_cfa_offset 24
	popq	%rbp
	.cfi_def_cfa_offset 16
.LVL80:
	.loc 1 109 1 view .LVU170
	popq	%r12
	.cfi_def_cfa_offset 8
.LVL81:
	.loc 1 109 1 view .LVU171
	xorl	%edx, %edx
	xorl	%esi, %esi
	xorl	%edi, %edi
	ret
	.cfi_endproc
.LFE46:
	.size	map_remove, .-map_remove
	.p2align 4
	.globl	map_search
	.type	map_search, @function
map_search:
.LVL82:
.LFB47:
	.loc 1 111 42 is_stmt 1 view -0
	.cfi_startproc
	.loc 1 112 3 view .LVU173
.LBB12:
	.loc 1 112 8 view .LVU174
.LBE12:
	.loc 1 111 42 is_stmt 0 view .LVU175
	pushq	%r12
	.cfi_def_cfa_offset 16
	.cfi_offset 12, -16
	movq	%rsi, %r12
	pushq	%rbp
	.cfi_def_cfa_offset 24
	.cfi_offset 6, -24
	movq	%rdi, %rbp
	pushq	%rbx
	.cfi_def_cfa_offset 32
	.cfi_offset 3, -32
.LBB13:
	.loc 1 112 24 view .LVU176
	movq	16(%rdi), %rdi
.LVL83:
	.loc 1 112 24 view .LVU177
	call	list_first@PLT
.LVL84:
	.loc 1 112 50 is_stmt 1 discriminator 1 view .LVU178
	testq	%rax, %rax
	je	.L42
	movq	%rax, %rbx
	jmp	.L44
.LVL85:
	.p2align 4,,10
	.p2align 3
.L50:
	.loc 1 113 13 view .LVU179
	.loc 1 113 15 is_stmt 0 view .LVU180
	movq	16(%rbp), %rdi
	call	list_next@PLT
.LVL86:
	movq	%rax, %rbx
.LVL87:
	.loc 1 112 50 is_stmt 1 discriminator 1 view .LVU181
	testq	%rax, %rax
	je	.L42
.LVL88:
.L44:
	.loc 1 114 5 view .LVU182
	.loc 1 114 9 is_stmt 0 view .LVU183
	movq	%r12, %rdx
	movq	%rbx, %rsi
	movq	%rbp, %rdi
	call	_is_equal@PLT
.LVL89:
	.loc 1 114 8 discriminator 1 view .LVU184
	testl	%eax, %eax
	je	.L50
.LBE13:
	.loc 1 118 1 view .LVU185
	movq	%rbx, %rax
	popq	%rbx
	.cfi_remember_state
	.cfi_def_cfa_offset 24
.LVL90:
	.loc 1 118 1 view .LVU186
	popq	%rbp
	.cfi_def_cfa_offset 16
.LVL91:
	.loc 1 118 1 view .LVU187
	popq	%r12
	.cfi_def_cfa_offset 8
.LVL92:
	.loc 1 118 1 view .LVU188
	xorl	%edx, %edx
	xorl	%esi, %esi
	xorl	%edi, %edi
	ret
.LVL93:
	.p2align 4,,10
	.p2align 3
.L42:
	.cfi_restore_state
	.loc 1 117 9 view .LVU189
	xorl	%ebx, %ebx
	.loc 1 118 1 view .LVU190
	movq	%rbx, %rax
	popq	%rbx
	.cfi_def_cfa_offset 24
	popq	%rbp
	.cfi_def_cfa_offset 16
.LVL94:
	.loc 1 118 1 view .LVU191
	popq	%r12
	.cfi_def_cfa_offset 8
.LVL95:
	.loc 1 118 1 view .LVU192
	xorl	%edx, %edx
	xorl	%esi, %esi
	xorl	%edi, %edi
	ret
	.cfi_endproc
.LFE47:
	.size	map_search, .-map_search
	.p2align 4
	.globl	map_insert
	.type	map_insert, @function
map_insert:
.LVL96:
.LFB44:
	.loc 1 90 51 is_stmt 1 view -0
	.cfi_startproc
	.loc 1 91 3 view .LVU194
	.loc 1 90 51 is_stmt 0 view .LVU195
	pushq	%r12
	.cfi_def_cfa_offset 16
	.cfi_offset 12, -16
	movq	%rdx, %r12
	pushq	%rbp
	.cfi_def_cfa_offset 24
	.cfi_offset 6, -24
	movq	%rsi, %rbp
	pushq	%rbx
	.cfi_def_cfa_offset 32
	.cfi_offset 3, -32
	.loc 1 90 51 view .LVU196
	movq	%rdi, %rbx
	.loc 1 91 7 view .LVU197
	call	map_search@PLT
.LVL97:
	.loc 1 91 6 discriminator 1 view .LVU198
	testq	%rax, %rax
	je	.L54
	.loc 1 93 1 view .LVU199
	popq	%rbx
	.cfi_remember_state
	.cfi_def_cfa_offset 24
.LVL98:
	.loc 1 93 1 view .LVU200
	popq	%rbp
	.cfi_def_cfa_offset 16
.LVL99:
	.loc 1 93 1 view .LVU201
	popq	%r12
	.cfi_def_cfa_offset 8
.LVL100:
	.loc 1 93 1 view .LVU202
	xorl	%eax, %eax
	xorl	%edx, %edx
	xorl	%esi, %esi
	xorl	%edi, %edi
	ret
.LVL101:
	.p2align 4,,10
	.p2align 3
.L54:
	.cfi_restore_state
	.loc 1 92 3 is_stmt 1 view .LVU203
	movq	%r12, %rdx
	movq	%rbp, %rsi
	movq	%rbx, %rdi
	.loc 1 93 1 is_stmt 0 view .LVU204
	popq	%rbx
	.cfi_def_cfa_offset 24
.LVL102:
	.loc 1 93 1 view .LVU205
	popq	%rbp
	.cfi_def_cfa_offset 16
.LVL103:
	.loc 1 93 1 view .LVU206
	popq	%r12
	.cfi_def_cfa_offset 8
.LVL104:
	.loc 1 92 3 view .LVU207
	jmp	multimap_insert@PLT
.LVL105:
	.loc 1 92 3 view .LVU208
	.cfi_endproc
.LFE44:
	.size	map_insert, .-map_insert
	.p2align 4
	.globl	map_first
	.type	map_first, @function
map_first:
.LVL106:
.LFB48:
	.loc 1 120 30 is_stmt 1 view -0
	.cfi_startproc
	.loc 1 120 32 view .LVU210
	.loc 1 120 39 is_stmt 0 view .LVU211
	movq	16(%rdi), %rdi
.LVL107:
	.loc 1 120 39 view .LVU212
	jmp	list_first@PLT
.LVL108:
	.cfi_endproc
.LFE48:
	.size	map_first, .-map_first
	.p2align 4
	.globl	map_next
	.type	map_next, @function
map_next:
.LVL109:
.LFB49:
	.loc 1 122 29 is_stmt 1 view -0
	.cfi_startproc
	.loc 1 122 31 view .LVU214
	.loc 1 122 38 is_stmt 0 view .LVU215
	movq	16(%rdi), %rdi
.LVL110:
	.loc 1 122 38 view .LVU216
	jmp	list_next@PLT
.LVL111:
	.cfi_endproc
.LFE49:
	.size	map_next, .-map_next
	.p2align 4
	.globl	map_clean
	.type	map_clean, @function
map_clean:
.LVL112:
.LFB50:
	.loc 1 124 26 is_stmt 1 view -0
	.cfi_startproc
	.loc 1 124 28 view .LVU218
	movq	16(%rdi), %rdi
.LVL113:
	.loc 1 124 28 is_stmt 0 view .LVU219
	jmp	list_clean@PLT
.LVL114:
	.cfi_endproc
.LFE50:
	.size	map_clean, .-map_clean
	.globl	current_lt
	.bss
	.align 8
	.type	current_lt, @object
	.size	current_lt, 8
current_lt:
	.zero	8
	.text
.Letext0:
	.file 2 "map.h"
	.file 3 "list.h"
	.file 4 "/nix/store/41pf3md9zgpda9kwh6rzn5kaddf7i0lp-glibc-2.40-66-dev/include/stdlib.h"
	.section	.note.GNU-stack,"",@progbits
